; Function Attrs: nounwind sspstrong uwtable
define internal noundef i64 @proc_syswait(i64 noundef %0) #1 {
  %2 = trunc i64 %0 to i32
  %3 = tail call i64 @rb_process_status_wait(i32 noundef %2, i32 noundef 0)
  %4 = icmp eq i64 %3, 4
  br i1 %4, label %rb_syswait.exit, label %5

5:                                                ; preds = %1
  %6 = tail call ptr @rb_check_typeddata(i64 noundef %3, ptr noundef nonnull @rb_process_status_type) #27
  %7 = load i32, ptr %6, align 4, !tbaa !49
  %8 = icmp eq i32 %7, -1
  br i1 %8, label %9, label %13

9:                                                ; preds = %5
  %10 = getelementptr inbounds nuw i8, ptr %6, i64 8
  %11 = load i32, ptr %10, align 4, !tbaa !52
  %12 = tail call ptr @rb_errno_ptr() #27
  store i32 %11, ptr %12, align 4, !tbaa !60
  br label %rb_syswait.exit

13:                                               ; preds = %5
  %14 = tail call align 8 ptr @llvm.threadlocal.address.p0(ptr align 8 @ruby_current_ec)
  %15 = load ptr, ptr %14, align 8, !tbaa !7
  %16 = getelementptr i8, ptr %15, i64 48
  %.val.i.i.i = load ptr, ptr %16, align 8, !tbaa !12
  %17 = getelementptr inbounds nuw i8, ptr %.val.i.i.i, i64 208
  store i64 %3, ptr %17, align 8, !tbaa !24
  br label %rb_syswait.exit

rb_syswait.exit:                                  ; preds = %1, %9, %13
  ret i64 4
}